target datalayout = "e-m:e-p270:32:32-p271:32:32-p272:64:64-i64:64-i128:128-f80:128-n8:16:32:64-S128"
target triple = "x86_64-pc-linux-gnu"

%struct.URLContext = type { ptr, ptr, ptr, ptr, i32, i32, i32, i32, %struct.AVIOInterruptCB, i64, ptr, ptr, i32 }
%struct.AVIOInterruptCB = type { ptr, ptr }
%struct.TCPContext = type { ptr, i32, i32, ptr, ptr, i32, i32, i32, i32, i32, i32, i32 }

; Function Attrs: nounwind uwtable
define internal i32 @tcp_read(ptr noundef %0, ptr noundef %1, i32 noundef %2) #0 {
  %4 = alloca i32, align 4
  %5 = alloca ptr, align 8
  %6 = alloca ptr, align 8
  %7 = alloca i32, align 4
  %8 = alloca ptr, align 8
  %9 = alloca i32, align 4
  %10 = alloca i32, align 4
  store ptr %0, ptr %5, align 8, !tbaa !4
  store ptr %1, ptr %6, align 8, !tbaa !9
  store i32 %2, ptr %7, align 4, !tbaa !11
  call void @llvm.lifetime.start.p0(i64 8, ptr %8) #9
  %11 = load ptr, ptr %5, align 8, !tbaa !4
  %12 = getelementptr inbounds nuw %struct.URLContext, ptr %11, i32 0, i32 2
  %13 = load ptr, ptr %12, align 8, !tbaa !13
  store ptr %13, ptr %8, align 8, !tbaa !19
  call void @llvm.lifetime.start.p0(i64 4, ptr %9) #9
  %14 = load ptr, ptr %5, align 8, !tbaa !4
  %15 = getelementptr inbounds nuw %struct.URLContext, ptr %14, i32 0, i32 4
  %16 = load i32, ptr %15, align 8, !tbaa !56
  %17 = and i32 %16, 8
  %18 = icmp ne i32 %17, 0
  br i1 %18, label %34, label %19

19:                                               ; preds = %3
  %20 = load ptr, ptr %8, align 8, !tbaa !19
  %21 = getelementptr inbounds nuw %struct.TCPContext, ptr %20, i32 0, i32 1
  %22 = load i32, ptr %21, align 8, !tbaa !51
  %23 = load ptr, ptr %5, align 8, !tbaa !4
  %24 = getelementptr inbounds nuw %struct.URLContext, ptr %23, i32 0, i32 9
  %25 = load i64, ptr %24, align 8, !tbaa !29
  %26 = load ptr, ptr %5, align 8, !tbaa !4
  %27 = getelementptr inbounds nuw %struct.URLContext, ptr %26, i32 0, i32 8
  %28 = call i32 @ff_network_wait_fd_timeout(i32 noundef %22, i32 noundef 0, i64 noundef %25, ptr noundef %27)
  store i32 %28, ptr %9, align 4, !tbaa !11
  %29 = load i32, ptr %9, align 4, !tbaa !11
  %30 = icmp ne i32 %29, 0
  br i1 %30, label %31, label %33

31:                                               ; preds = %19
  %32 = load i32, ptr %9, align 4, !tbaa !11
  store i32 %32, ptr %4, align 4
  store i32 1, ptr %10, align 4
  br label %57

33:                                               ; preds = %19
  br label %34

34:                                               ; preds = %33, %3
  %35 = load ptr, ptr %8, align 8, !tbaa !19
  %36 = getelementptr inbounds nuw %struct.TCPContext, ptr %35, i32 0, i32 1
  %37 = load i32, ptr %36, align 8, !tbaa !51
  %38 = load ptr, ptr %6, align 8, !tbaa !9
  %39 = load i32, ptr %7, align 4, !tbaa !11
  %40 = sext i32 %39 to i64
  %41 = call i64 @recv(i32 noundef %37, ptr noundef %38, i64 noundef %40, i32 noundef 0)
  %42 = trunc i64 %41 to i32
  store i32 %42, ptr %9, align 4, !tbaa !11
  %43 = load i32, ptr %9, align 4, !tbaa !11
  %44 = icmp eq i32 %43, 0
  br i1 %44, label %45, label %46

45:                                               ; preds = %34
  store i32 -541478725, ptr %4, align 4
  store i32 1, ptr %10, align 4
  br label %57

46:                                               ; preds = %34
  %47 = load i32, ptr %9, align 4, !tbaa !11
  %48 = icmp slt i32 %47, 0
  br i1 %48, label %49, label %53

49:                                               ; preds = %46
  %50 = call ptr @__errno_location() #11
  %51 = load i32, ptr %50, align 4, !tbaa !11
  %52 = sub nsw i32 0, %51
  br label %55

53:                                               ; preds = %46
  %54 = load i32, ptr %9, align 4, !tbaa !11
  br label %55

55:                                               ; preds = %53, %49
  %56 = phi i32 [ %52, %49 ], [ %54, %53 ]
  store i32 %56, ptr %4, align 4
  store i32 1, ptr %10, align 4
  br label %57

57:                                               ; preds = %55, %45, %31
  call void @llvm.lifetime.end.p0(i64 4, ptr %9) #9
  call void @llvm.lifetime.end.p0(i64 8, ptr %8) #9
  %58 = load i32, ptr %4, align 4
  ret i32 %58
}